; Function Attrs: mustprogress nounwind uwtable
define internal void @"_ZN5arrow8internal6FnOnceIFvvEE6FnImplISt5_BindIFNS_6detail14ContinueFutureENS_6FutureINS0_5EmptyEEEZNS_2io13FileInterface10CloseAsyncEvE3$_0EEED0Ev"(ptr noundef nonnull align 8 dereferenceable(40) %this) unnamed_addr #1 align 2 personality ptr @__gxx_personality_v0 {
entry:
  store ptr getelementptr inbounds ({ [5 x ptr] }, ptr @"_ZTVN5arrow8internal6FnOnceIFvvEE6FnImplISt5_BindIFNS_6detail14ContinueFutureENS_6FutureINS0_5EmptyEEEZNS_2io13FileInterface10CloseAsyncEvE3$_0EEEE", i64 0, i32 0, i64 2), ptr %this, align 8
  %0 = getelementptr inbounds i8, ptr %this, i64 32
  %fn_.val.i = load ptr, ptr %0, align 8
  %cmp.not.i.i.i.i.i.i.i.i.i = icmp eq ptr %fn_.val.i, null
  br i1 %cmp.not.i.i.i.i.i.i.i.i.i, label %"_ZN5arrow8internal6FnOnceIFvvEE6FnImplISt5_BindIFNS_6detail14ContinueFutureENS_6FutureINS0_5EmptyEEEZNS_2io13FileInterface10CloseAsyncEvE3$_0EEED2Ev.exit", label %if.then.i.i.i.i.i.i.i.i.i

if.then.i.i.i.i.i.i.i.i.i:                        ; preds = %entry
  %_M_use_count.i.i.i.i.i.i.i.i.i.i = getelementptr inbounds i8, ptr %fn_.val.i, i64 8
  %1 = load atomic i64, ptr %_M_use_count.i.i.i.i.i.i.i.i.i.i acquire, align 8
  %cmp.i.i.i.i.i.i.i.i.i.i = icmp eq i64 %1, 4294967297
  %2 = trunc i64 %1 to i32
  br i1 %cmp.i.i.i.i.i.i.i.i.i.i, label %if.then.i.i.i.i.i.i.i.i.i.i, label %if.end.i.i.i.i.i.i.i.i.i.i

if.then.i.i.i.i.i.i.i.i.i.i:                      ; preds = %if.then.i.i.i.i.i.i.i.i.i
  store i32 0, ptr %_M_use_count.i.i.i.i.i.i.i.i.i.i, align 8
  %_M_weak_count.i.i.i.i.i.i.i.i.i.i = getelementptr inbounds i8, ptr %fn_.val.i, i64 12
  store i32 0, ptr %_M_weak_count.i.i.i.i.i.i.i.i.i.i, align 4
  %vtable.i.i.i.i.i.i.i.i.i.i = load ptr, ptr %fn_.val.i, align 8
  %vfn.i.i.i.i.i.i.i.i.i.i = getelementptr inbounds i8, ptr %vtable.i.i.i.i.i.i.i.i.i.i, i64 16
  %3 = load ptr, ptr %vfn.i.i.i.i.i.i.i.i.i.i, align 8
  tail call void %3(ptr noundef nonnull align 8 dereferenceable(16) %fn_.val.i) #28
  br label %if.end8.sink.split.i.i.i.i.i.i.i.i.i.i

if.end.i.i.i.i.i.i.i.i.i.i:                       ; preds = %if.then.i.i.i.i.i.i.i.i.i
  %4 = load i8, ptr @__libc_single_threaded, align 1
  %tobool.i.not.i.i.i.i.i.i.i.i.i.i = icmp eq i8 %4, 0
  br i1 %tobool.i.not.i.i.i.i.i.i.i.i.i.i, label %if.else.i.i.i.i.i.i.i.i.i.i.i, label %if.then.i.i.i.i.i.i.i.i.i.i.i

if.then.i.i.i.i.i.i.i.i.i.i.i:                    ; preds = %if.end.i.i.i.i.i.i.i.i.i.i
  %add.i.i.i.i.i.i.i.i.i.i.i = add nsw i32 %2, -1
  store i32 %add.i.i.i.i.i.i.i.i.i.i.i, ptr %_M_use_count.i.i.i.i.i.i.i.i.i.i, align 4
  br label %_ZN9__gnu_cxx27__exchange_and_add_dispatchEPii.exit.i.i.i.i.i.i.i.i.i.i

if.else.i.i.i.i.i.i.i.i.i.i.i:                    ; preds = %if.end.i.i.i.i.i.i.i.i.i.i
  %5 = atomicrmw volatile add ptr %_M_use_count.i.i.i.i.i.i.i.i.i.i, i32 -1 acq_rel, align 4
  br label %_ZN9__gnu_cxx27__exchange_and_add_dispatchEPii.exit.i.i.i.i.i.i.i.i.i.i

_ZN9__gnu_cxx27__exchange_and_add_dispatchEPii.exit.i.i.i.i.i.i.i.i.i.i: ; preds = %if.else.i.i.i.i.i.i.i.i.i.i.i, %if.then.i.i.i.i.i.i.i.i.i.i.i
  %retval.i.0.i.i.i.i.i.i.i.i.i.i = phi i32 [ %2, %if.then.i.i.i.i.i.i.i.i.i.i.i ], [ %5, %if.else.i.i.i.i.i.i.i.i.i.i.i ]
  %cmp6.i.i.i.i.i.i.i.i.i.i = icmp eq i32 %retval.i.0.i.i.i.i.i.i.i.i.i.i, 1
  br i1 %cmp6.i.i.i.i.i.i.i.i.i.i, label %if.then7.i.i.i.i.i.i.i.i.i.i, label %"_ZN5arrow8internal6FnOnceIFvvEE6FnImplISt5_BindIFNS_6detail14ContinueFutureENS_6FutureINS0_5EmptyEEEZNS_2io13FileInterface10CloseAsyncEvE3$_0EEED2Ev.exit"

if.then7.i.i.i.i.i.i.i.i.i.i:                     ; preds = %_ZN9__gnu_cxx27__exchange_and_add_dispatchEPii.exit.i.i.i.i.i.i.i.i.i.i
  %vtable.i.i.i.i.i.i.i.i.i.i.i.i = load ptr, ptr %fn_.val.i, align 8
  %vfn.i.i.i.i.i.i.i.i.i.i.i.i = getelementptr inbounds i8, ptr %vtable.i.i.i.i.i.i.i.i.i.i.i.i, i64 16
  %6 = load ptr, ptr %vfn.i.i.i.i.i.i.i.i.i.i.i.i, align 8
  tail call void %6(ptr noundef nonnull align 8 dereferenceable(16) %fn_.val.i) #28
  %_M_weak_count.i.i.i.i.i.i.i.i.i.i.i.i = getelementptr inbounds i8, ptr %fn_.val.i, i64 12
  %7 = load i8, ptr @__libc_single_threaded, align 1
  %tobool.i.not.i.i.i.i.i.i.i.i.i.i.i.i = icmp eq i8 %7, 0
  br i1 %tobool.i.not.i.i.i.i.i.i.i.i.i.i.i.i, label %if.else.i.i.i.i.i.i.i.i.i.i.i.i.i, label %if.then.i.i.i.i.i.i.i.i.i.i.i.i.i

if.then.i.i.i.i.i.i.i.i.i.i.i.i.i:                ; preds = %if.then7.i.i.i.i.i.i.i.i.i.i
  %8 = load i32, ptr %_M_weak_count.i.i.i.i.i.i.i.i.i.i.i.i, align 4
  %add.i.i.i.i.i.i.i.i.i.i.i.i.i = add nsw i32 %8, -1
  store i32 %add.i.i.i.i.i.i.i.i.i.i.i.i.i, ptr %_M_weak_count.i.i.i.i.i.i.i.i.i.i.i.i, align 4
  br label %_ZN9__gnu_cxx27__exchange_and_add_dispatchEPii.exit.i.i.i.i.i.i.i.i.i.i.i.i

if.else.i.i.i.i.i.i.i.i.i.i.i.i.i:                ; preds = %if.then7.i.i.i.i.i.i.i.i.i.i
  %9 = atomicrmw volatile add ptr %_M_weak_count.i.i.i.i.i.i.i.i.i.i.i.i, i32 -1 acq_rel, align 4
  br label %_ZN9__gnu_cxx27__exchange_and_add_dispatchEPii.exit.i.i.i.i.i.i.i.i.i.i.i.i

_ZN9__gnu_cxx27__exchange_and_add_dispatchEPii.exit.i.i.i.i.i.i.i.i.i.i.i.i: ; preds = %if.else.i.i.i.i.i.i.i.i.i.i.i.i.i, %if.then.i.i.i.i.i.i.i.i.i.i.i.i.i
  %retval.i.0.i.i.i.i.i.i.i.i.i.i.i.i = phi i32 [ %8, %if.then.i.i.i.i.i.i.i.i.i.i.i.i.i ], [ %9, %if.else.i.i.i.i.i.i.i.i.i.i.i.i.i ]
  %cmp.i.i.i.i.i.i.i.i.i.i.i.i = icmp eq i32 %retval.i.0.i.i.i.i.i.i.i.i.i.i.i.i, 1
  br i1 %cmp.i.i.i.i.i.i.i.i.i.i.i.i, label %if.end8.sink.split.i.i.i.i.i.i.i.i.i.i, label %"_ZN5arrow8internal6FnOnceIFvvEE6FnImplISt5_BindIFNS_6detail14ContinueFutureENS_6FutureINS0_5EmptyEEEZNS_2io13FileInterface10CloseAsyncEvE3$_0EEED2Ev.exit"

if.end8.sink.split.i.i.i.i.i.i.i.i.i.i:           ; preds = %_ZN9__gnu_cxx27__exchange_and_add_dispatchEPii.exit.i.i.i.i.i.i.i.i.i.i.i.i, %if.then.i.i.i.i.i.i.i.i.i.i
  %vtable2.i.i.i.i.i.i.i.i.i.i.i.i = load ptr, ptr %fn_.val.i, align 8
  %vfn3.i.i.i.i.i.i.i.i.i.i.i.i = getelementptr inbounds i8, ptr %vtable2.i.i.i.i.i.i.i.i.i.i.i.i, i64 24
  %10 = load ptr, ptr %vfn3.i.i.i.i.i.i.i.i.i.i.i.i, align 8
  tail call void %10(ptr noundef nonnull align 8 dereferenceable(16) %fn_.val.i) #28
  br label %"_ZN5arrow8internal6FnOnceIFvvEE6FnImplISt5_BindIFNS_6detail14ContinueFutureENS_6FutureINS0_5EmptyEEEZNS_2io13FileInterface10CloseAsyncEvE3$_0EEED2Ev.exit"

"_ZN5arrow8internal6FnOnceIFvvEE6FnImplISt5_BindIFNS_6detail14ContinueFutureENS_6FutureINS0_5EmptyEEEZNS_2io13FileInterface10CloseAsyncEvE3$_0EEED2Ev.exit": ; preds = %entry, %_ZN9__gnu_cxx27__exchange_and_add_dispatchEPii.exit.i.i.i.i.i.i.i.i.i.i, %_ZN9__gnu_cxx27__exchange_and_add_dispatchEPii.exit.i.i.i.i.i.i.i.i.i.i.i.i, %if.end8.sink.split.i.i.i.i.i.i.i.i.i.i
  tail call void @_ZdlPv(ptr noundef nonnull %this) #31
  ret void
}